Certificate:
    Data:
        Version: 3 (0x2)
        Serial Number: 1 (0x1)
        Signature Algorithm: md5WithRSAEncryption
        Issuer: C=US, ST=Some-State, O=Internet Widgits Pty Ltd, CN=localhost
        Validity
            Not Before: Jan 12 20:00:46 2010 GMT
            Not After : Jan 12 20:00:46 2011 GMT
        Subject: C=US, ST=Some-State, O=Internet Widgits Pty Ltd, OU=besserver, CN=localhost
        Subject Public Key Info:
            Public Key Algorithm: rsaEncryption
            RSA Public Key: (1024 bit)
                Modulus (1024 bit):
                    00:b4:d6:f5:8c:e7:bf:52:01:4d:cc:69:d7:59:e2:
                    c1:b4:9b:0a:ab:b5:83:87:c7:d5:a0:e8:c7:06:d3:
                    a7:f1:7c:dd:1b:36:f6:08:ed:4b:33:05:10:84:dd:
                    b3:a6:6a:b2:29:bf:32:2c:b3:ad:f9:57:50:8c:02:
                    e5:59:d4:de:0e:3a:14:55:e7:68:ec:96:d7:c8:da:
                    4b:71:d3:ab:bd:5b:50:67:19:57:c6:3c:46:c1:5b:
                    1a:87:65:c1:7c:04:75:c3:00:15:f0:4e:86:ec:5d:
                    55:7d:b0:6c:02:e4:a2:f4:70:23:37:88:a8:2c:3d:
                    96:df:df:fb:92:72:78:e5:b1
                Exponent: 65537 (0x10001)
        X509v3 extensions:
            X509v3 Basic Constraints: 
                CA:FALSE
            Netscape Comment: 
                OpenSSL Generated Certificate
            X509v3 Subject Key Identifier: 
                58:1E:50:E0:CA:FC:8A:A7:57:3E:26:6C:83:53:5E:66:80:7D:9D:66
            X509v3 Authority Key Identifier: 
                keyid:13:58:0F:58:4F:84:46:FB:E4:15:B7:A4:F1:10:9F:F0:FA:C9:74:D7
                DirName:/C=US/ST=Some-State/O=Internet Widgits Pty Ltd/CN=localhost
                serial:AF:79:DF:C7:14:13:2B:95

    Signature Algorithm: md5WithRSAEncryption
        54:89:d8:9c:91:b2:8d:4e:c2:75:5a:c5:05:06:0f:6f:b6:05:
        a3:bf:d0:d4:fe:b6:e5:ce:32:97:49:c8:a9:1d:e6:f9:04:4a:
        ed:30:55:bf:d1:d7:a6:8d:f5:0e:83:80:be:29:88:0a:89:ea:
        4c:43:72:0a:ef:6d:b1:c0:fa:8d:63:b0:43:9b:c1:d2:58:86:
        5c:17:88:b8:b6:14:97:96:f7:cb:6c:a1:0c:a2:91:00:0d:61:
        11:5e:da:f1:80:fa:3d:98:04:a6:18:fd:8a:43:31:20:60:f8:
        d4:f4:5e:0c:1a:18:ff:8b:08:95:0e:74:c0:45:08:55:fa:db:
        41:48
-----BEGIN CERTIFICATE-----
MIIDJjCCAo+gAwIBAgIBATANBgkqhkiG9w0BAQQFADBZMQswCQYDVQQGEwJVUzET
MBEGA1UECBMKU29tZS1TdGF0ZTEhMB8GA1UEChMYSW50ZXJuZXQgV2lkZ2l0cyBQ
dHkgTHRkMRIwEAYDVQQDEwlsb2NhbGhvc3QwHhcNMTAwMTEyMjAwMDQ2WhcNMTEw
MTEyMjAwMDQ2WjBtMQswCQYDVQQGEwJVUzETMBEGA1UECBMKU29tZS1TdGF0ZTEh
MB8GA1UEChMYSW50ZXJuZXQgV2lkZ2l0cyBQdHkgTHRkMRIwEAYDVQQLEwliZXNz
ZXJ2ZXIxEjAQBgNVBAMTCWxvY2FsaG9zdDCBnzANBgkqhkiG9w0BAQEFAAOBjQAw
gYkCgYEAtNb1jOe/UgFNzGnXWeLBtJsKq7WDh8fVoOjHBtOn8XzdGzb2CO1LMwUQ
hN2zpmqyKb8yLLOt+VdQjALlWdTeDjoUVedo7JbXyNpLcdOrvVtQZxlXxjxGwVsa
h2XBfAR1wwAV8E6G7F1VfbBsAuSi9HAjN4ioLD2W39/7knJ45bECAwEAAaOB6TCB
5jAJBgNVHRMEAjAAMCwGCWCGSAGG+EIBDQQfFh1PcGVuU1NMIEdlbmVyYXRlZCBD
ZXJ0aWZpY2F0ZTAdBgNVHQ4EFgQUWB5Q4Mr8iqdXPiZsg1NeZoB9nWYwgYsGA1Ud
IwSBgzCBgIAUE1gPWE+ERvvkFbek8RCf8PrJdNehXaRbMFkxCzAJBgNVBAYTAlVT
MRMwEQYDVQQIEwpTb21lLVN0YXRlMSEwHwYDVQQKExhJbnRlcm5ldCBXaWRnaXRz
IFB0eSBMdGQxEjAQBgNVBAMTCWxvY2FsaG9zdIIJAK9538cUEyuVMA0GCSqGSIb3
DQEBBAUAA4GBAFSJ2JyRso1OwnVaxQUGD2+2BaO/0NT+tuXOMpdJyKkd5vkESu0w
Vb/R16aN9Q6DgL4piAqJ6kxDcgrvbbHA+o1jsEObwdJYhlwXiLi2FJeW98tsoQyi
kQANYRFe2vGA+j2YBKYY/YpDMSBg+NT0XgwaGP+LCJUOdMBFCFX620FI
-----END CERTIFICATE-----
